target datalayout = "e-m:e-p270:32:32-p271:32:32-p272:64:64-i64:64-i128:128-f80:128-n8:16:32:64-S128"
target triple = "x86_64-pc-linux-gnu"

%"class.llvm::LiveVariables" = type { %"class.llvm::IndexedMap", ptr, ptr, ptr, %"class.std::vector", %"class.std::vector", %"class.std::vector.3", %"class.llvm::DenseMap" }
%"class.llvm::IndexedMap" = type <{ %"class.llvm::SmallVector", %"struct.llvm::LiveVariables::VarInfo", [8 x i8] }>
%"class.llvm::SmallVector" = type { %"class.llvm::SmallVectorImpl" }
%"class.llvm::SmallVectorImpl" = type { %"class.llvm::SmallVectorTemplateBase" }
%"class.llvm::SmallVectorTemplateBase" = type { %"class.llvm::SmallVectorTemplateCommon" }
%"class.llvm::SmallVectorTemplateCommon" = type { %"class.llvm::SmallVectorBase" }
%"class.llvm::SmallVectorBase" = type { ptr, i32, i32 }
%"struct.llvm::LiveVariables::VarInfo" = type { %"class.llvm::SparseBitVector", %"class.std::vector" }
%"class.llvm::SparseBitVector" = type { %"class.std::__cxx11::list", %"struct.std::_List_iterator" }
%"class.std::__cxx11::list" = type { %"class.std::__cxx11::_List_base" }
%"class.std::__cxx11::_List_base" = type { %"struct.std::__cxx11::_List_base<llvm::SparseBitVectorElement<>, std::allocator<llvm::SparseBitVectorElement<>>>::_List_impl" }
%"struct.std::__cxx11::_List_base<llvm::SparseBitVectorElement<>, std::allocator<llvm::SparseBitVectorElement<>>>::_List_impl" = type { %"struct.std::__detail::_List_node_header" }
%"struct.std::__detail::_List_node_header" = type { %"struct.std::__detail::_List_node_base", i64 }
%"struct.std::__detail::_List_node_base" = type { ptr, ptr }
%"struct.std::_List_iterator" = type { ptr }
%"class.std::vector" = type { %"struct.std::_Vector_base" }
%"struct.std::_Vector_base" = type { %"struct.std::_Vector_base<llvm::MachineInstr *, std::allocator<llvm::MachineInstr *>>::_Vector_impl" }
%"struct.std::_Vector_base<llvm::MachineInstr *, std::allocator<llvm::MachineInstr *>>::_Vector_impl" = type { %"struct.std::_Vector_base<llvm::MachineInstr *, std::allocator<llvm::MachineInstr *>>::_Vector_impl_data" }
%"struct.std::_Vector_base<llvm::MachineInstr *, std::allocator<llvm::MachineInstr *>>::_Vector_impl_data" = type { ptr, ptr, ptr }
%"class.std::vector.3" = type { %"struct.std::_Vector_base.4" }
%"struct.std::_Vector_base.4" = type { %"struct.std::_Vector_base<llvm::SmallVector<unsigned int, 4>, std::allocator<llvm::SmallVector<unsigned int, 4>>>::_Vector_impl" }
%"struct.std::_Vector_base<llvm::SmallVector<unsigned int, 4>, std::allocator<llvm::SmallVector<unsigned int, 4>>>::_Vector_impl" = type { %"struct.std::_Vector_base<llvm::SmallVector<unsigned int, 4>, std::allocator<llvm::SmallVector<unsigned int, 4>>>::_Vector_impl_data" }
%"struct.std::_Vector_base<llvm::SmallVector<unsigned int, 4>, std::allocator<llvm::SmallVector<unsigned int, 4>>>::_Vector_impl_data" = type { ptr, ptr, ptr }
%"class.llvm::DenseMap" = type <{ ptr, i32, i32, i32, [4 x i8] }>
%"class.llvm::Register" = type { i32 }

; Function Attrs: mustprogress nounwind uwtable
define linkonce_odr hidden noundef i32 @_ZNK4llvm8RegistercvjEv(ptr noundef nonnull align 4 dereferenceable(4) %0) #0 comdat align 2 {
  %2 = alloca ptr, align 8
  store ptr %0, ptr %2, align 8
  %3 = load ptr, ptr %2, align 8
  %4 = getelementptr inbounds nuw %"class.llvm::Register", ptr %3, i32 0, i32 0
  %5 = load i32, ptr %4, align 4
  ret i32 %5
}

; Function Attrs: mustprogress nounwind uwtable
define linkonce_odr hidden noundef ptr @_ZN4llvm25SmallVectorTemplateCommonINS_13LiveVariables7VarInfoEvE5beginEv(ptr noundef nonnull align 8 dereferenceable(16) %0) #0 comdat align 2 {
  %2 = alloca ptr, align 8
  store ptr %0, ptr %2, align 8
  %3 = load ptr, ptr %2, align 8
  %4 = getelementptr inbounds nuw %"class.llvm::SmallVectorBase", ptr %3, i32 0, i32 0
  %5 = load ptr, ptr %4, align 8
  ret ptr %5
}

; Function Attrs: mustprogress nounwind uwtable
define linkonce_odr hidden noundef i32 @_ZN4llvm8Register13virtReg2IndexES0_(i32 %0) #0 comdat align 2 {
  %2 = alloca %"class.llvm::Register", align 4
  %3 = getelementptr inbounds nuw %"class.llvm::Register", ptr %2, i32 0, i32 0
  store i32 %0, ptr %3, align 4
  %4 = call noundef i32 @_ZNK4llvm8RegistercvjEv(ptr noundef nonnull align 4 dereferenceable(4) %2)
  %5 = and i32 %4, 2147483647
  ret i32 %5
}

; Function Attrs: mustprogress nounwind uwtable
define linkonce_odr hidden noundef nonnull align 8 dereferenceable(56) ptr @_ZN4llvm25SmallVectorTemplateCommonINS_13LiveVariables7VarInfoEvEixEm(ptr noundef nonnull align 8 dereferenceable(16) %0, i64 noundef %1) #0 comdat align 2 {
  %3 = alloca ptr, align 8
  %4 = alloca i64, align 8
  store ptr %0, ptr %3, align 8
  store i64 %1, ptr %4, align 8
  %5 = load ptr, ptr %3, align 8
  %6 = call noundef ptr @_ZN4llvm25SmallVectorTemplateCommonINS_13LiveVariables7VarInfoEvE5beginEv(ptr noundef nonnull align 8 dereferenceable(16) %5)
  %7 = load i64, ptr %4, align 8
  %8 = getelementptr inbounds %"struct.llvm::LiveVariables::VarInfo", ptr %6, i64 %7
  ret ptr %8
}

; Function Attrs: mustprogress nounwind uwtable
define linkonce_odr hidden void @_ZN4llvm10IndexedMapINS_13LiveVariables7VarInfoENS_20VirtReg2IndexFunctorEE6resizeEm(ptr noundef nonnull align 8 dereferenceable(73) %0, i64 noundef %1) #0 comdat align 2 {
  %3 = alloca ptr, align 8
  %4 = alloca i64, align 8
  store ptr %0, ptr %3, align 8
  store i64 %1, ptr %4, align 8
  %5 = load ptr, ptr %3, align 8
  %6 = getelementptr inbounds nuw %"class.llvm::IndexedMap", ptr %5, i32 0, i32 0
  %7 = load i64, ptr %4, align 8
  %8 = getelementptr inbounds nuw %"class.llvm::IndexedMap", ptr %5, i32 0, i32 1
  call void @_ZN4llvm15SmallVectorImplINS_13LiveVariables7VarInfoEE6resizeEmRKS2_(ptr noundef nonnull align 8 dereferenceable(16) %6, i64 noundef %7, ptr noundef nonnull align 8 dereferenceable(56) %8)
  ret void
}

; Function Attrs: mustprogress nounwind uwtable
define linkonce_odr hidden noundef i32 @_ZNK4llvm20VirtReg2IndexFunctorclENS_8RegisterE(ptr noundef nonnull align 1 dereferenceable(1) %0, i32 %1) #0 comdat align 2 {
  %3 = alloca %"class.llvm::Register", align 4
  %4 = alloca ptr, align 8
  %5 = alloca %"class.llvm::Register", align 4
  %6 = getelementptr inbounds nuw %"class.llvm::Register", ptr %3, i32 0, i32 0
  store i32 %1, ptr %6, align 4
  store ptr %0, ptr %4, align 8
  call void @llvm.memcpy.p0.p0.i64(ptr align 4 %5, ptr align 4 %3, i64 4, i1 false)
  %7 = getelementptr inbounds nuw %"class.llvm::Register", ptr %5, i32 0, i32 0
  %8 = load i32, ptr %7, align 4
  %9 = call noundef i32 @_ZN4llvm8Register13virtReg2IndexES0_(i32 %8)
  ret i32 %9
}

; Function Attrs: mustprogress nounwind uwtable
define linkonce_odr hidden noundef nonnull align 8 dereferenceable(56) ptr @_ZN4llvm10IndexedMapINS_13LiveVariables7VarInfoENS_20VirtReg2IndexFunctorEEixENS_8RegisterE(ptr noundef nonnull align 8 dereferenceable(73) %0, i32 %1) #0 comdat align 2 {
  %3 = alloca %"class.llvm::Register", align 4
  %4 = alloca ptr, align 8
  %5 = alloca %"class.llvm::Register", align 4
  %6 = getelementptr inbounds nuw %"class.llvm::Register", ptr %3, i32 0, i32 0
  store i32 %1, ptr %6, align 4
  store ptr %0, ptr %4, align 8
  %7 = load ptr, ptr %4, align 8
  %8 = getelementptr inbounds nuw %"class.llvm::IndexedMap", ptr %7, i32 0, i32 0
  %9 = getelementptr inbounds i8, ptr %7, i64 72
  call void @llvm.memcpy.p0.p0.i64(ptr align 4 %5, ptr align 4 %3, i64 4, i1 false)
  %10 = getelementptr inbounds nuw %"class.llvm::Register", ptr %5, i32 0, i32 0
  %11 = load i32, ptr %10, align 4
  %12 = call noundef i32 @_ZNK4llvm20VirtReg2IndexFunctorclENS_8RegisterE(ptr noundef nonnull align 1 dereferenceable(1) %9, i32 %11)
  %13 = zext i32 %12 to i64
  %14 = call noundef nonnull align 8 dereferenceable(56) ptr @_ZN4llvm25SmallVectorTemplateCommonINS_13LiveVariables7VarInfoEvEixEm(ptr noundef nonnull align 8 dereferenceable(16) %8, i64 noundef %13)
  ret ptr %14
}

; Function Attrs: mustprogress nounwind uwtable
define linkonce_odr hidden void @_ZN4llvm10IndexedMapINS_13LiveVariables7VarInfoENS_20VirtReg2IndexFunctorEE4growENS_8RegisterE(ptr noundef nonnull align 8 dereferenceable(73) %0, i32 %1) #0 comdat align 2 {
  %3 = alloca %"class.llvm::Register", align 4
  %4 = alloca ptr, align 8
  %5 = alloca i32, align 4
  %6 = alloca %"class.llvm::Register", align 4
  %7 = getelementptr inbounds nuw %"class.llvm::Register", ptr %3, i32 0, i32 0
  store i32 %1, ptr %7, align 4
  store ptr %0, ptr %4, align 8
  %8 = load ptr, ptr %4, align 8
  %9 = getelementptr inbounds i8, ptr %8, i64 72
  call void @llvm.memcpy.p0.p0.i64(ptr align 4 %6, ptr align 4 %3, i64 4, i1 false)
  %10 = getelementptr inbounds nuw %"class.llvm::Register", ptr %6, i32 0, i32 0
  %11 = load i32, ptr %10, align 4
  %12 = call noundef i32 @_ZNK4llvm20VirtReg2IndexFunctorclENS_8RegisterE(ptr noundef nonnull align 1 dereferenceable(1) %9, i32 %11)
  %13 = add i32 %12, 1
  store i32 %13, ptr %5, align 4
  %14 = load i32, ptr %5, align 4
  %15 = zext i32 %14 to i64
  %16 = getelementptr inbounds nuw %"class.llvm::IndexedMap", ptr %8, i32 0, i32 0
  %17 = call noundef i64 @_ZNK4llvm15SmallVectorBaseIjE4sizeEv(ptr noundef nonnull align 8 dereferenceable(16) %16)
  %18 = icmp ugt i64 %15, %17
  br i1 %18, label %19, label %22

19:                                               ; preds = %2
  %20 = load i32, ptr %5, align 4
  %21 = zext i32 %20 to i64
  call void @_ZN4llvm10IndexedMapINS_13LiveVariables7VarInfoENS_20VirtReg2IndexFunctorEE6resizeEm(ptr noundef nonnull align 8 dereferenceable(73) %8, i64 noundef %21)
  br label %22

22:                                               ; preds = %19, %2
  ret void
}

; Function Attrs: mustprogress nounwind uwtable
define dso_local noundef nonnull align 8 dereferenceable(56) ptr @_ZN4llvm13LiveVariables10getVarInfoENS_8RegisterE(ptr noundef nonnull align 8 dereferenceable(200) %0, i32 %1) #0 align 2 {
  %3 = alloca %"class.llvm::Register", align 4
  %4 = alloca ptr, align 8
  %5 = alloca %"class.llvm::Register", align 4
  %6 = alloca %"class.llvm::Register", align 4
  %7 = getelementptr inbounds nuw %"class.llvm::Register", ptr %3, i32 0, i32 0
  store i32 %1, ptr %7, align 4
  store ptr %0, ptr %4, align 8
  %8 = load ptr, ptr %4, align 8
  %9 = getelementptr inbounds nuw %"class.llvm::LiveVariables", ptr %8, i32 0, i32 0
  call void @llvm.memcpy.p0.p0.i64(ptr align 4 %5, ptr align 4 %3, i64 4, i1 false)
  %10 = getelementptr inbounds nuw %"class.llvm::Register", ptr %5, i32 0, i32 0
  %11 = load i32, ptr %10, align 4
  call void @_ZN4llvm10IndexedMapINS_13LiveVariables7VarInfoENS_20VirtReg2IndexFunctorEE4growENS_8RegisterE(ptr noundef nonnull align 8 dereferenceable(73) %9, i32 %11)
  %12 = getelementptr inbounds nuw %"class.llvm::LiveVariables", ptr %8, i32 0, i32 0
  call void @llvm.memcpy.p0.p0.i64(ptr align 4 %6, ptr align 4 %3, i64 4, i1 false)
  %13 = getelementptr inbounds nuw %"class.llvm::Register", ptr %6, i32 0, i32 0
  %14 = load i32, ptr %13, align 4
  %15 = call noundef nonnull align 8 dereferenceable(56) ptr @_ZN4llvm10IndexedMapINS_13LiveVariables7VarInfoENS_20VirtReg2IndexFunctorEEixENS_8RegisterE(ptr noundef nonnull align 8 dereferenceable(73) %12, i32 %14)
  ret ptr %15
}