; Function Attrs: mustprogress nounwind uwtable
define dso_local noundef nonnull align 8 dereferenceable(56) ptr @_ZN4llvm13LiveVariables10getVarInfoENS_8RegisterE(ptr noundef nonnull align 8 dereferenceable(200) %0, i32 %1) local_unnamed_addr #0 align 2 {
  %3 = and i32 %1, 2147483647
  %4 = add nuw i32 %3, 1
  %5 = zext i32 %4 to i64
  %6 = tail call noundef i64 @_ZNK4llvm15SmallVectorBaseIjE4sizeEv(ptr noundef nonnull align 8 dereferenceable(73) %0) #16
  %7 = icmp ult i64 %6, %5
  br i1 %7, label %8, label %_ZN4llvm10IndexedMapINS_13LiveVariables7VarInfoENS_20VirtReg2IndexFunctorEE4growENS_8RegisterE.exit

8:                                                ; preds = %2
  %9 = getelementptr inbounds nuw i8, ptr %0, i64 16
  tail call void @_ZN4llvm15SmallVectorImplINS_13LiveVariables7VarInfoEE6resizeEmRKS2_(ptr noundef nonnull align 8 dereferenceable(73) %0, i64 noundef %5, ptr noundef nonnull align 8 dereferenceable(56) %9)
  br label %_ZN4llvm10IndexedMapINS_13LiveVariables7VarInfoENS_20VirtReg2IndexFunctorEE4growENS_8RegisterE.exit

_ZN4llvm10IndexedMapINS_13LiveVariables7VarInfoENS_20VirtReg2IndexFunctorEE4growENS_8RegisterE.exit: ; preds = %2, %8
  %10 = zext nneg i32 %3 to i64
  %11 = load ptr, ptr %0, align 8
  %12 = getelementptr inbounds nuw %"struct.llvm::LiveVariables::VarInfo", ptr %11, i64 %10
  ret ptr %12
}